csupybot.ircutils
IrcDict
p1
((dp2
S'#katello'
p3
(lp4
(lp5
S'Welcome to #katello - have you checked out katello.org? Introduce yourself!'
p6
aa(lp7
S'Welcome to #katello - have you checked out katello.org? Introduce yourself!'
p8
aa(lp9
S'Welcome to #katello - have you checked out katello.org? Introduce yourself!'
p10
aa(lp11
S'Welcome to #katello - have you checked out katello.org? Introduce yourself!'
p12
aastRp13
.csupybot.ircutils
IrcDict
p1
((dtRp2
.csupybot.ircutils
IrcDict
p1
((dtRp2
.csupybot.ircutils
IrcSet
p1
((lp2
ccopy_reg
_reconstructor
p3
(csupybot.ircutils
IrcString
p4
c__builtin__
str
p5
S'#mmmccune2'
tRp6
(dp7
S'lowered'
p8
S'#mmmccune2'
p9
sbag3
(g4
g5
S'#mmccune'
tRp10
(dp11
g8
S'#mmccune'
p12
sbatRp13
.